target datalayout = "e-m:e-p270:32:32-p271:32:32-p272:64:64-i64:64-i128:128-f80:128-n8:16:32:64-S128"
target triple = "x86_64-pc-linux-gnu"

; Function Attrs: mustprogress uwtable
define ptr @uprv_strdup_77(ptr noundef %0) #3 {
  %2 = alloca ptr, align 8
  %3 = alloca i64, align 8
  %4 = alloca ptr, align 8
  store ptr %0, ptr %2, align 8, !tbaa !6
  call void @llvm.lifetime.start.p0(i64 8, ptr %3) #7
  %5 = load ptr, ptr %2, align 8, !tbaa !6
  %6 = call i64 @strlen(ptr noundef %5) #8
  %7 = add i64 %6, 1
  store i64 %7, ptr %3, align 8, !tbaa !15
  call void @llvm.lifetime.start.p0(i64 8, ptr %4) #7
  %8 = load i64, ptr %3, align 8, !tbaa !15
  %9 = call noalias ptr @uprv_malloc_77(i64 noundef %8) #9
  store ptr %9, ptr %4, align 8, !tbaa !6
  %10 = load ptr, ptr %4, align 8, !tbaa !6
  %11 = icmp ne ptr %10, null
  br i1 %11, label %12, label %19

12:                                               ; preds = %1
  br label %13

13:                                               ; preds = %12
  %14 = load ptr, ptr %4, align 8, !tbaa !6
  %15 = load ptr, ptr %2, align 8, !tbaa !6
  %16 = load i64, ptr %3, align 8, !tbaa !15
  call void @llvm.memcpy.p0.p0.i64(ptr align 1 %14, ptr align 1 %15, i64 %16, i1 false)
  br label %17

17:                                               ; preds = %13
  br label %18

18:                                               ; preds = %17
  br label %19

19:                                               ; preds = %18, %1
  %20 = load ptr, ptr %4, align 8, !tbaa !6
  call void @llvm.lifetime.end.p0(i64 8, ptr %4) #7
  call void @llvm.lifetime.end.p0(i64 8, ptr %3) #7
  ret ptr %20
}

; Function Attrs: mustprogress uwtable
define ptr @uprv_strndup_77(ptr noundef %0, i32 noundef %1) #3 {
  %3 = alloca ptr, align 8
  %4 = alloca i32, align 4
  %5 = alloca ptr, align 8
  store ptr %0, ptr %3, align 8, !tbaa !6
  store i32 %1, ptr %4, align 4, !tbaa !12
  call void @llvm.lifetime.start.p0(i64 8, ptr %5) #7
  %6 = load i32, ptr %4, align 4, !tbaa !12
  %7 = icmp slt i32 %6, 0
  br i1 %7, label %8, label %11

8:                                                ; preds = %2
  %9 = load ptr, ptr %3, align 8, !tbaa !6
  %10 = call ptr @uprv_strdup_77(ptr noundef %9)
  store ptr %10, ptr %5, align 8, !tbaa !6
  br label %31

11:                                               ; preds = %2
  %12 = load i32, ptr %4, align 4, !tbaa !12
  %13 = add nsw i32 %12, 1
  %14 = sext i32 %13 to i64
  %15 = call noalias ptr @uprv_malloc_77(i64 noundef %14) #9
  store ptr %15, ptr %5, align 8, !tbaa !6
  %16 = load ptr, ptr %5, align 8, !tbaa !6
  %17 = icmp ne ptr %16, null
  br i1 %17, label %18, label %30

18:                                               ; preds = %11
  br label %19

19:                                               ; preds = %18
  %20 = load ptr, ptr %5, align 8, !tbaa !6
  %21 = load ptr, ptr %3, align 8, !tbaa !6
  %22 = load i32, ptr %4, align 4, !tbaa !12
  %23 = sext i32 %22 to i64
  call void @llvm.memcpy.p0.p0.i64(ptr align 1 %20, ptr align 1 %21, i64 %23, i1 false)
  br label %24

24:                                               ; preds = %19
  br label %25

25:                                               ; preds = %24
  %26 = load ptr, ptr %5, align 8, !tbaa !6
  %27 = load i32, ptr %4, align 4, !tbaa !12
  %28 = sext i32 %27 to i64
  %29 = getelementptr inbounds i8, ptr %26, i64 %28
  store i8 0, ptr %29, align 1, !tbaa !3
  br label %30

30:                                               ; preds = %25, %11
  br label %31

31:                                               ; preds = %30, %8
  %32 = load ptr, ptr %5, align 8, !tbaa !6
  call void @llvm.lifetime.end.p0(i64 8, ptr %5) #7
  ret ptr %32
}