; Function Attrs: mustprogress uwtable
define noalias ptr @uprv_strndup_77(ptr noundef readonly captures(none) %0, i32 noundef %1) local_unnamed_addr #8 {
  %3 = icmp slt i32 %1, 0
  br i1 %3, label %4, label %9

4:                                                ; preds = %2
  %5 = tail call i64 @strlen(ptr noundef nonnull readonly dereferenceable(1) %0) #13
  %6 = add i64 %5, 1
  %7 = tail call noalias ptr @uprv_malloc_77(i64 noundef %6) #14
  %.not.i = icmp eq ptr %7, null
  br i1 %.not.i, label %uprv_strdup_77.exit, label %8

8:                                                ; preds = %4
  tail call void @llvm.memcpy.p0.p0.i64(ptr nonnull align 1 %7, ptr nonnull readonly align 1 %0, i64 %6, i1 false)
  br label %uprv_strdup_77.exit

9:                                                ; preds = %2
  %10 = add nuw nsw i32 %1, 1
  %11 = zext nneg i32 %10 to i64
  %12 = tail call noalias ptr @uprv_malloc_77(i64 noundef %11) #14
  %.not = icmp eq ptr %12, null
  br i1 %.not, label %uprv_strdup_77.exit, label %13

13:                                               ; preds = %9
  %14 = zext nneg i32 %1 to i64
  tail call void @llvm.memcpy.p0.p0.i64(ptr nonnull align 1 %12, ptr align 1 %0, i64 %14, i1 false)
  %15 = getelementptr inbounds nuw i8, ptr %12, i64 %14
  store i8 0, ptr %15, align 1, !tbaa !3
  br label %uprv_strdup_77.exit

uprv_strdup_77.exit:                              ; preds = %8, %4, %9, %13
  %.0 = phi ptr [ %12, %13 ], [ null, %9 ], [ null, %4 ], [ %7, %8 ]
  ret ptr %.0
}